target datalayout = "e-m:e-p270:32:32-p271:32:32-p272:64:64-i64:64-i128:128-f80:128-n8:16:32:64-S128"
target triple = "x86_64-pc-linux-gnu"

%struct.ResourceOwnerData = type { ptr, ptr, ptr, ptr, i8, i8, i8, i8, i32, [32 x %struct.ResourceElem], ptr, i32, i32, [15 x ptr] }
%struct.ResourceElem = type { i64, ptr }

@.str.1 = private unnamed_addr constant [11 x i8] c"resowner.c\00", align 1
@.str.6 = private unnamed_addr constant [52 x i8] c"lock reference %p is not owned by resource owner %s\00", align 1
@__func__.ResourceOwnerForgetLock = private unnamed_addr constant [24 x i8] c"ResourceOwnerForgetLock\00", align 1

; Function Attrs: nounwind uwtable
define dso_local void @ResourceOwnerForgetLock(ptr noundef %0, ptr noundef %1) #0 {
  %3 = alloca ptr, align 8
  %4 = alloca ptr, align 8
  %5 = alloca i32, align 4
  %6 = alloca i32, align 4
  store ptr %0, ptr %3, align 8
  store ptr %1, ptr %4, align 8
  call void @llvm.lifetime.start.p0(i64 4, ptr %5) #6
  %7 = load ptr, ptr %3, align 8
  %8 = getelementptr inbounds nuw %struct.ResourceOwnerData, ptr %7, i32 0, i32 6
  %9 = load i8, ptr %8, align 2
  %10 = zext i8 %9 to i32
  %11 = icmp sgt i32 %10, 15
  br i1 %11, label %12, label %13

12:                                               ; preds = %2
  store i32 1, ptr %6, align 4
  br label %70

13:                                               ; preds = %2
  %14 = load ptr, ptr %3, align 8
  %15 = getelementptr inbounds nuw %struct.ResourceOwnerData, ptr %14, i32 0, i32 6
  %16 = load i8, ptr %15, align 2
  %17 = zext i8 %16 to i32
  %18 = sub i32 %17, 1
  store i32 %18, ptr %5, align 4
  br label %19

19:                                               ; preds = %52, %13
  %20 = load i32, ptr %5, align 4
  %21 = icmp sge i32 %20, 0
  br i1 %21, label %22, label %55

22:                                               ; preds = %19
  %23 = load ptr, ptr %4, align 8
  %24 = load ptr, ptr %3, align 8
  %25 = getelementptr inbounds nuw %struct.ResourceOwnerData, ptr %24, i32 0, i32 13
  %26 = load i32, ptr %5, align 4
  %27 = sext i32 %26 to i64
  %28 = getelementptr inbounds [15 x ptr], ptr %25, i64 0, i64 %27
  %29 = load ptr, ptr %28, align 8
  %30 = icmp eq ptr %23, %29
  br i1 %30, label %31, label %51

31:                                               ; preds = %22
  %32 = load ptr, ptr %3, align 8
  %33 = getelementptr inbounds nuw %struct.ResourceOwnerData, ptr %32, i32 0, i32 13
  %34 = load ptr, ptr %3, align 8
  %35 = getelementptr inbounds nuw %struct.ResourceOwnerData, ptr %34, i32 0, i32 6
  %36 = load i8, ptr %35, align 2
  %37 = zext i8 %36 to i32
  %38 = sub i32 %37, 1
  %39 = sext i32 %38 to i64
  %40 = getelementptr inbounds [15 x ptr], ptr %33, i64 0, i64 %39
  %41 = load ptr, ptr %40, align 8
  %42 = load ptr, ptr %3, align 8
  %43 = getelementptr inbounds nuw %struct.ResourceOwnerData, ptr %42, i32 0, i32 13
  %44 = load i32, ptr %5, align 4
  %45 = sext i32 %44 to i64
  %46 = getelementptr inbounds [15 x ptr], ptr %43, i64 0, i64 %45
  store ptr %41, ptr %46, align 8
  %47 = load ptr, ptr %3, align 8
  %48 = getelementptr inbounds nuw %struct.ResourceOwnerData, ptr %47, i32 0, i32 6
  %49 = load i8, ptr %48, align 2
  %50 = add i8 %49, -1
  store i8 %50, ptr %48, align 2
  store i32 1, ptr %6, align 4
  br label %70

51:                                               ; preds = %22
  br label %52

52:                                               ; preds = %51
  %53 = load i32, ptr %5, align 4
  %54 = add i32 %53, -1
  store i32 %54, ptr %5, align 4
  br label %19, !llvm.loop !18

55:                                               ; preds = %19
  br label %56

56:                                               ; preds = %55
  br i1 true, label %57, label %59

57:                                               ; preds = %56
  %58 = call zeroext i1 @errstart_cold(i32 noundef 21, ptr noundef null) #7
  br i1 %58, label %61, label %67

59:                                               ; preds = %56
  %60 = call zeroext i1 @errstart(i32 noundef 21, ptr noundef null)
  br i1 %60, label %61, label %67

61:                                               ; preds = %59, %57
  %62 = load ptr, ptr %4, align 8
  %63 = load ptr, ptr %3, align 8
  %64 = getelementptr inbounds nuw %struct.ResourceOwnerData, ptr %63, i32 0, i32 3
  %65 = load ptr, ptr %64, align 8
  %66 = call i32 (ptr, ...) @errmsg_internal(ptr noundef @.str.6, ptr noundef %62, ptr noundef %65)
  call void @errfinish(ptr noundef @.str.1, i32 noundef 1083, ptr noundef @__func__.ResourceOwnerForgetLock)
  br label %67

67:                                               ; preds = %61, %59, %57
  unreachable

68:                                               ; No predecessors!
  br label %69

69:                                               ; preds = %68
  store i32 0, ptr %6, align 4
  br label %70

70:                                               ; preds = %69, %31, %12
  call void @llvm.lifetime.end.p0(i64 4, ptr %5) #6
  %71 = load i32, ptr %6, align 4
  switch i32 %71, label %73 [
    i32 0, label %72
    i32 1, label %72
  ]

72:                                               ; preds = %70, %70
  ret void

73:                                               ; preds = %70
  unreachable
}