; Function Attrs: nounwind uwtable
define dso_local void @ResourceOwnerForgetLock(ptr noundef captures(none) %0, ptr noundef %1) local_unnamed_addr #0 {
  %3 = getelementptr inbounds nuw i8, ptr %0, i64 34
  %4 = load i8, ptr %3, align 2
  %5 = icmp ugt i8 %4, 15
  br i1 %5, label %26, label %6

6:                                                ; preds = %2
  %7 = getelementptr inbounds nuw i8, ptr %0, i64 568
  %8 = zext nneg i8 %4 to i64
  br label %9

9:                                                ; preds = %11, %6
  %indvars.iv = phi i64 [ %indvars.iv.next, %11 ], [ %8, %6 ]
  %10 = icmp sgt i64 %indvars.iv, 0
  br i1 %10, label %11, label %21

11:                                               ; preds = %9
  %indvars.iv.next = add nsw i64 %indvars.iv, -1
  %12 = getelementptr inbounds nuw [15 x ptr], ptr %7, i64 0, i64 %indvars.iv.next
  %13 = load ptr, ptr %12, align 8
  %14 = icmp eq ptr %1, %13
  br i1 %14, label %15, label %9, !llvm.loop !20

15:                                               ; preds = %11
  %16 = getelementptr inbounds nuw [15 x ptr], ptr %7, i64 0, i64 %indvars.iv.next
  %17 = add nsw i64 %8, -1
  %18 = getelementptr inbounds [15 x ptr], ptr %7, i64 0, i64 %17
  %19 = load ptr, ptr %18, align 8
  store ptr %19, ptr %16, align 8
  %20 = add nsw i8 %4, -1
  store i8 %20, ptr %3, align 2
  br label %26

21:                                               ; preds = %9
  %22 = tail call zeroext i1 @errstart_cold(i32 noundef 21, ptr noundef null) #11
  tail call void @llvm.assume(i1 %22)
  %23 = getelementptr inbounds nuw i8, ptr %0, i64 24
  %24 = load ptr, ptr %23, align 8
  %25 = tail call i32 (ptr, ...) @errmsg_internal(ptr noundef nonnull @.str.6, ptr noundef %1, ptr noundef %24) #10
  tail call void @errfinish(ptr noundef nonnull @.str.1, i32 noundef 1083, ptr noundef nonnull @__func__.ResourceOwnerForgetLock) #10
  unreachable

26:                                               ; preds = %2, %15
  ret void
}